target datalayout = "e-m:e-p270:32:32-p271:32:32-p272:64:64-i64:64-i128:128-f80:128-n8:16:32:64-S128"
target triple = "x86_64-pc-linux-gnu"

@.str.3 = private unnamed_addr constant [3 x i8] c", \00", align 1
@.str.5 = private unnamed_addr constant [3 x i8] c"}\0A\00", align 1
@.str.7 = private unnamed_addr constant [7 x i8] c"%12.5e\00", align 1
@.str.8 = private unnamed_addr constant [7 x i8] c"%15.8e\00", align 1
@.str.9 = private unnamed_addr constant [21 x i8] c"GMX_PRINT_LONGFORMAT\00", align 1
@.str.10 = private unnamed_addr constant [10 x i8] c"%s[%5d]={\00", align 1

; Function Attrs: mustprogress uwtable
define void @_Z8pr_rvecsP8_IO_FILEiPKcPA3_Kfi(ptr noundef %0, i32 noundef %1, ptr noundef %2, ptr noundef %3, i32 noundef %4) #0 {
  %6 = alloca ptr, align 8
  %7 = alloca i32, align 4
  %8 = alloca ptr, align 8
  %9 = alloca ptr, align 8
  %10 = alloca i32, align 4
  %11 = alloca ptr, align 8
  %12 = alloca ptr, align 8
  %13 = alloca ptr, align 8
  %14 = alloca i32, align 4
  %15 = alloca i32, align 4
  store ptr %0, ptr %6, align 8
  store i32 %1, ptr %7, align 4
  store ptr %2, ptr %8, align 8
  store ptr %3, ptr %9, align 8
  store i32 %4, ptr %10, align 4
  store ptr @.str.7, ptr %11, align 8
  store ptr @.str.8, ptr %12, align 8
  %16 = call ptr @getenv(ptr noundef @.str.9) #3
  %17 = icmp ne ptr %16, null
  br i1 %17, label %18, label %20

18:                                               ; preds = %5
  %19 = load ptr, ptr %12, align 8
  store ptr %19, ptr %13, align 8
  br label %22

20:                                               ; preds = %5
  %21 = load ptr, ptr %11, align 8
  store ptr %21, ptr %13, align 8
  br label %22

22:                                               ; preds = %20, %18
  %23 = load ptr, ptr %6, align 8
  %24 = load ptr, ptr %9, align 8
  %25 = load i32, ptr %7, align 4
  %26 = load ptr, ptr %8, align 8
  %27 = call noundef zeroext i1 @_Z9availableP8_IO_FILEPKviPKc(ptr noundef %23, ptr noundef %24, i32 noundef %25, ptr noundef %26)
  br i1 %27, label %28, label %78

28:                                               ; preds = %22
  %29 = load ptr, ptr %6, align 8
  %30 = load i32, ptr %7, align 4
  %31 = load ptr, ptr %8, align 8
  %32 = load i32, ptr %10, align 4
  %33 = call noundef i32 @_Z12pr_title_nxnP8_IO_FILEiPKcii(ptr noundef %29, i32 noundef %30, ptr noundef %31, i32 noundef %32, i32 noundef 3)
  store i32 %33, ptr %7, align 4
  store i32 0, ptr %14, align 4
  br label %34

34:                                               ; preds = %74, %28
  %35 = load i32, ptr %14, align 4
  %36 = load i32, ptr %10, align 4
  %37 = icmp slt i32 %35, %36
  br i1 %37, label %38, label %77

38:                                               ; preds = %34
  %39 = load ptr, ptr %6, align 8
  %40 = load i32, ptr %7, align 4
  %41 = call noundef i32 @_Z9pr_indentP8_IO_FILEi(ptr noundef %39, i32 noundef %40)
  %42 = load ptr, ptr %6, align 8
  %43 = load ptr, ptr %8, align 8
  %44 = load i32, ptr %14, align 4
  %45 = call i32 (ptr, ptr, ...) @fprintf(ptr noundef %42, ptr noundef @.str.10, ptr noundef %43, i32 noundef %44) #3
  store i32 0, ptr %15, align 4
  br label %46

46:                                               ; preds = %68, %38
  %47 = load i32, ptr %15, align 4
  %48 = icmp slt i32 %47, 3
  br i1 %48, label %49, label %71

49:                                               ; preds = %46
  %50 = load i32, ptr %15, align 4
  %51 = icmp ne i32 %50, 0
  br i1 %51, label %52, label %55

52:                                               ; preds = %49
  %53 = load ptr, ptr %6, align 8
  %54 = call i32 (ptr, ptr, ...) @fprintf(ptr noundef %53, ptr noundef @.str.3) #3
  br label %55

55:                                               ; preds = %52, %49
  %56 = load ptr, ptr %6, align 8
  %57 = load ptr, ptr %13, align 8
  %58 = load ptr, ptr %9, align 8
  %59 = load i32, ptr %14, align 4
  %60 = sext i32 %59 to i64
  %61 = getelementptr inbounds [3 x float], ptr %58, i64 %60
  %62 = load i32, ptr %15, align 4
  %63 = sext i32 %62 to i64
  %64 = getelementptr inbounds [3 x float], ptr %61, i64 0, i64 %63
  %65 = load float, ptr %64, align 4
  %66 = fpext float %65 to double
  %67 = call i32 (ptr, ptr, ...) @fprintf(ptr noundef %56, ptr noundef %57, double noundef %66) #3
  br label %68

68:                                               ; preds = %55
  %69 = load i32, ptr %15, align 4
  %70 = add nsw i32 %69, 1
  store i32 %70, ptr %15, align 4
  br label %46, !llvm.loop !14

71:                                               ; preds = %46
  %72 = load ptr, ptr %6, align 8
  %73 = call i32 (ptr, ptr, ...) @fprintf(ptr noundef %72, ptr noundef @.str.5) #3
  br label %74

74:                                               ; preds = %71
  %75 = load i32, ptr %14, align 4
  %76 = add nsw i32 %75, 1
  store i32 %76, ptr %14, align 4
  br label %34, !llvm.loop !15

77:                                               ; preds = %34
  br label %78

78:                                               ; preds = %77, %22
  ret void
}