; Function Attrs: mustprogress uwtable
define void @_Z8pr_rvecsP8_IO_FILEiPKcPA3_Kfi(ptr noundef %0, i32 noundef %1, ptr noundef %2, ptr noundef %3, i32 noundef %4) local_unnamed_addr #0 {
  %6 = tail call ptr @getenv(ptr noundef nonnull @.str.9) #6
  %.not = icmp eq ptr %6, null
  %.str.7..str.8 = select i1 %.not, ptr @.str.7, ptr @.str.8
  %7 = tail call noundef zeroext i1 @_Z9availableP8_IO_FILEPKviPKc(ptr noundef %0, ptr noundef %3, i32 noundef %1, ptr noundef %2)
  br i1 %7, label %8, label %.loopexit

8:                                                ; preds = %5
  %9 = tail call noundef i32 @_Z12pr_title_nxnP8_IO_FILEiPKcii(ptr noundef %0, i32 noundef %1, ptr noundef %2, i32 noundef %4, i32 noundef 3)
  %10 = icmp sgt i32 %4, 0
  br i1 %10, label %.lr.ph.preheader, label %.loopexit

.lr.ph.preheader:                                 ; preds = %8
  %wide.trip.count = zext nneg i32 %4 to i64
  br label %.lr.ph

.lr.ph:                                           ; preds = %.lr.ph.preheader, %22
  %indvars.iv33 = phi i64 [ 0, %.lr.ph.preheader ], [ %indvars.iv.next34, %22 ]
  %11 = tail call noundef i32 @_Z9pr_indentP8_IO_FILEi(ptr noundef %0, i32 noundef %9)
  %12 = trunc nuw nsw i64 %indvars.iv33 to i32
  %13 = tail call i32 (ptr, ptr, ...) @fprintf(ptr noundef %0, ptr noundef nonnull @.str.10, ptr noundef %2, i32 noundef %12) #6
  br label %14

14:                                               ; preds = %.lr.ph, %17
  %indvars.iv = phi i64 [ 0, %.lr.ph ], [ %indvars.iv.next, %17 ]
  %.not29 = icmp eq i64 %indvars.iv, 0
  br i1 %.not29, label %17, label %15

15:                                               ; preds = %14
  %16 = tail call i64 @fwrite(ptr nonnull @.str.3, i64 2, i64 1, ptr %0)
  br label %17

17:                                               ; preds = %15, %14
  %18 = getelementptr inbounds [3 x float], ptr %3, i64 %indvars.iv33, i64 %indvars.iv
  %19 = load float, ptr %18, align 4
  %20 = fpext float %19 to double
  %21 = tail call i32 (ptr, ptr, ...) @fprintf(ptr noundef %0, ptr noundef nonnull %.str.7..str.8, double noundef %20) #6
  %indvars.iv.next = add nuw nsw i64 %indvars.iv, 1
  %exitcond.not = icmp eq i64 %indvars.iv.next, 3
  br i1 %exitcond.not, label %22, label %14, !llvm.loop !14

22:                                               ; preds = %17
  %23 = tail call i64 @fwrite(ptr nonnull @.str.5, i64 2, i64 1, ptr %0)
  %indvars.iv.next34 = add nuw nsw i64 %indvars.iv33, 1
  %exitcond36.not = icmp eq i64 %indvars.iv.next34, %wide.trip.count
  br i1 %exitcond36.not, label %.loopexit, label %.lr.ph, !llvm.loop !15

.loopexit:                                        ; preds = %22, %8, %5
  ret void
}